Certificate:
    Data:
        Version: 3 (0x2)
        Serial Number: 1 (0x1)
    Signature Algorithm: sha256WithRSAEncryption
        Issuer: C=AU, ST=Some-State, O=Internet Widgits Pty Ltd
        Validity
            Not Before: Jan 29 09:16:32 2019 GMT
            Not After : Jan 29 09:16:32 2020 GMT
        Subject: C=AU, ST=Some-State, O=Internet Widgits Pty Ltd
        Subject Public Key Info:
            Public Key Algorithm: rsaEncryption
                Public-Key: (4096 bit)
                Modulus:
                    00:c2:e7:e4:12:1a:df:fb:29:02:db:cb:4d:e6:73:
                    92:4a:a5:5b:29:f4:01:69:2d:aa:4e:5c:31:e6:ac:
                    88:ca:e5:e7:10:02:b0:be:2c:6a:35:99:fd:4e:8d:
                    86:d7:b1:c6:79:fb:54:06:d1:3b:5a:3b:c4:3e:f7:
                    dc:4e:40:6a:3d:7c:1d:35:85:a3:3b:be:98:e6:f2:
                    ce:58:c3:0f:0a:50:2c:bc:a0:6f:58:57:96:92:68:
                    5c:21:cc:15:a7:7a:45:ae:75:20:87:3f:1d:6b:84:
                    5e:ca:7c:6d:b5:dc:4b:f1:57:28:21:eb:c3:70:86:
                    38:f5:bc:76:5c:b1:d4:26:25:f0:da:12:d7:5f:d5:
                    7f:1d:32:4a:5d:a0:2b:e9:63:c6:cd:87:3e:23:f6:
                    f7:01:25:eb:32:4a:64:35:34:10:0b:71:79:0e:0a:
                    4e:e3:f2:ea:08:e7:4e:b9:ff:ca:02:37:00:a1:34:
                    cc:99:fa:16:34:9d:ec:81:50:6a:e3:03:7a:e4:37:
                    3d:10:8c:db:b3:06:e0:00:5b:18:2d:f3:16:8e:97:
                    4b:44:42:b4:65:e8:9b:3d:63:12:5f:4c:9e:80:1f:
                    50:8e:1a:c7:08:2c:10:c8:46:ee:06:fb:36:1f:51:
                    98:c0:b0:24:0b:56:0e:d8:26:40:a3:fa:ef:90:78:
                    fa:db:ef:90:77:cc:3e:e8:ab:aa:5f:81:17:4a:11:
                    8f:00:55:42:ba:89:a4:d5:8c:ff:b7:bf:a6:9f:7d:
                    c9:86:f5:86:30:0f:af:ad:e5:e8:26:b2:eb:01:dc:
                    07:e6:52:c0:cf:c9:37:76:d4:f4:6a:a5:32:15:2c:
                    b7:4e:1c:ce:80:15:91:2d:ef:e1:87:d2:ad:13:ab:
                    b7:dd:c8:70:7a:af:e5:63:99:e7:62:9e:a0:2a:29:
                    1f:e6:b3:65:7e:3a:ee:de:27:a3:f3:93:38:f0:b1:
                    41:dd:c5:7f:c7:d7:63:bf:d3:1b:b2:a0:36:b7:bf:
                    18:f4:18:08:ed:40:b6:ca:fa:59:53:54:92:c1:87:
                    a9:b4:bd:5c:b9:35:e2:30:95:ad:e5:ff:58:dd:78:
                    e1:79:13:7b:20:6e:5c:77:be:36:d0:37:c5:91:f3:
                    e2:22:a1:a7:62:97:1e:3b:46:6a:00:0b:0a:63:30:
                    fb:2a:89:0e:c1:93:1d:ca:be:c1:bb:4a:86:a2:b3:
                    4d:5d:ad:5a:16:ec:23:60:65:44:a7:4c:19:8f:14:
                    ce:25:15:5b:00:a2:12:95:bd:20:cd:64:c4:8b:bb:
                    ff:a5:3b:35:5d:a5:06:20:62:4b:44:94:27:4f:95:
                    65:ec:fd:44:2e:0c:22:30:22:4a:87:00:7b:54:df:
                    cf:ae:2d
                Exponent: 65537 (0x10001)
        X509v3 extensions:
            X509v3 Subject Key Identifier: 
                16:98:79:4B:9E:F2:E8:4E:D1:75:89:B7:51:18:AB:BC:30:CA:BD:81
            X509v3 Authority Key Identifier: 
                keyid:16:98:79:4B:9E:F2:E8:4E:D1:75:89:B7:51:18:AB:BC:30:CA:BD:81
                DirName:/C=AU/ST=Some-State/O=Internet Widgits Pty Ltd
                serial:01

            X509v3 Basic Constraints: 
                CA:TRUE
    Signature Algorithm: sha256WithRSAEncryption
         33:4e:90:eb:1e:81:e5:9a:d8:ba:fd:48:82:7d:e7:a4:fe:6e:
         a1:82:35:c8:db:08:c5:de:45:5a:69:72:5c:ad:21:0e:86:05:
         c2:b2:e3:bd:28:f4:b3:02:e9:de:1b:8a:83:12:c9:f1:55:33:
         de:e6:7f:3c:2e:f4:c6:17:61:0a:fa:f8:3c:04:39:ce:76:f6:
         85:58:fe:50:63:f7:5a:8c:46:9c:82:b4:c7:b7:b5:51:71:be:
         80:b4:9e:32:fc:5c:e8:60:b3:46:41:cf:cc:c7:0c:af:98:ab:
         55:f0:23:15:84:d0:bc:40:74:55:32:e2:35:c2:35:9b:a6:ff:
         bf:ad:cf:fe:44:60:be:d6:de:cc:5a:3a:3c:14:57:75:64:68:
         3c:6d:bc:05:f7:51:e0:27:85:0a:2a:84:31:b2:a1:dc:8f:98:
         a4:b7:30:4f:d6:3e:b1:31:b6:21:f7:18:a0:51:32:ad:9e:f4:
         de:1d:f5:4a:e2:b0:96:2d:fd:07:c0:16:e3:72:d8:e2:4d:ef:
         a6:cb:0d:e1:c3:3d:2e:82:96:5b:8a:4a:c8:8b:2e:2b:d5:9e:
         2f:d1:5d:1f:a3:e0:c2:d5:a0:11:d9:2f:d8:4b:a4:af:91:7f:
         24:11:24:fc:54:2e:ff:63:0d:c8:d0:f2:f9:fc:82:88:16:07:
         45:9c:1d:bb:e5:d1:b7:31:79:45:84:26:01:a7:91:1a:58:13:
         87:60:e9:00:2e:2d:ac:5f:84:a1:6f:cc:96:9c:5a:98:ad:4b:
         0f:2c:29:7f:f6:f3:32:92:33:e5:a5:5b:49:4b:11:c0:b1:43:
         7f:be:2f:44:60:67:1d:25:2b:9c:ef:8e:8b:31:8e:8c:e0:72:
         f9:68:a5:8c:d6:a0:e4:b2:4a:df:31:73:19:fa:57:51:dc:14:
         47:ad:5b:91:14:96:b0:9f:97:1d:13:04:94:64:35:cf:c9:d4:
         23:91:b7:90:a4:2b:37:44:99:40:a2:1f:fa:16:40:85:96:a1:
         75:02:63:89:a0:b9:be:fc:8f:3a:de:70:92:a8:ae:28:c6:d7:
         ed:b9:72:4b:56:61:2a:53:15:4e:70:1e:d0:e1:c7:7d:ee:83:
         19:a7:fd:47:5b:12:a6:d7:d6:e8:57:d3:a4:a7:34:ce:e7:b7:
         3e:d2:cf:98:a5:b2:21:2b:e3:e4:4a:5f:42:dc:e4:94:13:9c:
         e7:57:90:71:19:e1:50:f7:d6:f2:2b:5e:bd:94:2b:63:2d:1a:
         24:08:68:d5:b6:e3:90:71:18:42:4e:72:3c:a0:1b:4a:2a:1d:
         99:a2:c6:c8:95:47:1d:3f:d3:0c:96:e8:20:04:0e:a6:1d:82:
         02:b7:d4:c0:a2:84:97:00
-----BEGIN CERTIFICATE-----
MIIFpTCCA42gAwIBAgIBATANBgkqhkiG9w0BAQsFADBFMQswCQYDVQQGEwJBVTET
MBEGA1UECAwKU29tZS1TdGF0ZTEhMB8GA1UECgwYSW50ZXJuZXQgV2lkZ2l0cyBQ
dHkgTHRkMB4XDTE5MDEyOTA5MTYzMloXDTIwMDEyOTA5MTYzMlowRTELMAkGA1UE
BhMCQVUxEzARBgNVBAgMClNvbWUtU3RhdGUxITAfBgNVBAoMGEludGVybmV0IFdp
ZGdpdHMgUHR5IEx0ZDCCAiIwDQYJKoZIhvcNAQEBBQADggIPADCCAgoCggIBAMLn
5BIa3/spAtvLTeZzkkqlWyn0AWktqk5cMeasiMrl5xACsL4sajWZ/U6Nhtexxnn7
VAbRO1o7xD733E5Aaj18HTWFozu+mObyzljDDwpQLLygb1hXlpJoXCHMFad6Ra51
IIc/HWuEXsp8bbXcS/FXKCHrw3CGOPW8dlyx1CYl8NoS11/Vfx0ySl2gK+ljxs2H
PiP29wEl6zJKZDU0EAtxeQ4KTuPy6gjnTrn/ygI3AKE0zJn6FjSd7IFQauMDeuQ3
PRCM27MG4ABbGC3zFo6XS0RCtGXomz1jEl9MnoAfUI4axwgsEMhG7gb7Nh9RmMCw
JAtWDtgmQKP675B4+tvvkHfMPuirql+BF0oRjwBVQrqJpNWM/7e/pp99yYb1hjAP
r63l6Cay6wHcB+ZSwM/JN3bU9GqlMhUst04czoAVkS3v4YfSrROrt93IcHqv5WOZ
52KeoCopH+azZX467t4no/OTOPCxQd3Ff8fXY7/TG7KgNre/GPQYCO1Atsr6WVNU
ksGHqbS9XLk14jCVreX/WN144XkTeyBuXHe+NtA3xZHz4iKhp2KXHjtGagALCmMw
+yqJDsGTHcq+wbtKhqKzTV2tWhbsI2BlRKdMGY8UziUVWwCiEpW9IM1kxIu7/6U7
NV2lBiBiS0SUJ0+VZez9RC4MIjAiSocAe1Tfz64tAgMBAAGjgZ8wgZwwHQYDVR0O
BBYEFBaYeUue8uhO0XWJt1EYq7wwyr2BMG0GA1UdIwRmMGSAFBaYeUue8uhO0XWJ
t1EYq7wwyr2BoUmkRzBFMQswCQYDVQQGEwJBVTETMBEGA1UECAwKU29tZS1TdGF0
ZTEhMB8GA1UECgwYSW50ZXJuZXQgV2lkZ2l0cyBQdHkgTHRkggEBMAwGA1UdEwQF
MAMBAf8wDQYJKoZIhvcNAQELBQADggIBADNOkOsegeWa2Lr9SIJ956T+bqGCNcjb
CMXeRVppclytIQ6GBcKy470o9LMC6d4bioMSyfFVM97mfzwu9MYXYQr6+DwEOc52
9oVY/lBj91qMRpyCtMe3tVFxvoC0njL8XOhgs0ZBz8zHDK+Yq1XwIxWE0LxAdFUy
4jXCNZum/7+tz/5EYL7W3sxaOjwUV3VkaDxtvAX3UeAnhQoqhDGyodyPmKS3ME/W
PrExtiH3GKBRMq2e9N4d9UrisJYt/QfAFuNy2OJN76bLDeHDPS6ClluKSsiLLivV
ni/RXR+j4MLVoBHZL9hLpK+RfyQRJPxULv9jDcjQ8vn8gogWB0WcHbvl0bcxeUWE
JgGnkRpYE4dg6QAuLaxfhKFvzJacWpitSw8sKX/28zKSM+WlW0lLEcCxQ3++L0Rg
Zx0lK5zvjosxjozgcvlopYzWoOSySt8xcxn6V1HcFEetW5EUlrCflx0TBJRkNc/J
1CORt5CkKzdEmUCiH/oWQIWWoXUCY4mgub78jzrecJKorijG1+25cktWYSpTFU5w
HtDhx33ugxmn/UdbEqbX1uhX06SnNM7ntz7Sz5ilsiEr4+RKX0Lc5JQTnOdXkHEZ
4VD31vIrXr2UK2MtGiQIaNW245BxGEJOcjygG0oqHZmixsiVRx0/0wyW6CAEDqYd
ggK31MCihJcA
-----END CERTIFICATE-----
